target datalayout = "e-m:e-p270:32:32-p271:32:32-p272:64:64-i64:64-i128:128-f80:128-n8:16:32:64-S128"
target triple = "x86_64-pc-linux-gnu"

%struct.FunctionCallInfoBaseData = type { ptr, ptr, ptr, i32, i8, i16, [0 x %struct.NullableDatum] }
%struct.NullableDatum = type { i64, i8 }
%struct.Ranges = type { i32, i32, i16, ptr, i32, i32, i32, i32, i32, [0 x i64] }
%struct.SerializedRanges = type { i32, i32, i32, i32, i32, [0 x i8] }
%struct.FmgrInfo = type { ptr, i32, i16, i8, i8, i8, ptr, ptr, ptr }
%struct.StringInfoData = type { ptr, i32, i32, i32 }

@CurrentMemoryContext = external global ptr, align 8
@.str.7 = private unnamed_addr constant [40 x i8] c"nranges: %d  nvalues: %d  maxvalues: %d\00", align 1
@.str.8 = private unnamed_addr constant [10 x i8] c"%s ... %s\00", align 1
@.str.9 = private unnamed_addr constant [12 x i8] c" ranges: %s\00", align 1
@.str.10 = private unnamed_addr constant [12 x i8] c" values: %s\00", align 1

; Function Attrs: inlinehint nounwind uwtable
define internal i64 @CStringGetDatum(ptr noundef %0) #3 {
  %2 = alloca ptr, align 8
  store ptr %0, ptr %2, align 8
  %3 = load ptr, ptr %2, align 8
  %4 = call i64 @PointerGetDatum(ptr noundef %3)
  ret i64 %4
}

; Function Attrs: inlinehint nounwind uwtable
define internal ptr @DatumGetCString(i64 noundef %0) #3 {
  %2 = alloca i64, align 8
  store i64 %0, ptr %2, align 8
  %3 = load i64, ptr %2, align 8
  %4 = call ptr @DatumGetPointer(i64 noundef %3)
  ret ptr %4
}

; Function Attrs: inlinehint nounwind uwtable
define internal i64 @PointerGetDatum(ptr noundef %0) #3 {
  %2 = alloca ptr, align 8
  store ptr %0, ptr %2, align 8
  %3 = load ptr, ptr %2, align 8
  %4 = ptrtoint ptr %3 to i64
  ret i64 %4
}

; Function Attrs: inlinehint nounwind uwtable
define internal ptr @DatumGetPointer(i64 noundef %0) #3 {
  %2 = alloca i64, align 8
  store i64 %0, ptr %2, align 8
  %3 = load i64, ptr %2, align 8
  %4 = inttoptr i64 %3 to ptr
  ret ptr %4
}

; Function Attrs: nounwind uwtable
define dso_local i64 @brin_minmax_multi_summary_out(ptr noundef %0) #0 {
  %2 = alloca ptr, align 8
  %3 = alloca i32, align 4
  %4 = alloca i32, align 4
  %5 = alloca ptr, align 8
  %6 = alloca ptr, align 8
  %7 = alloca %struct.StringInfoData, align 8
  %8 = alloca i8, align 1
  %9 = alloca i32, align 4
  %10 = alloca %struct.FmgrInfo, align 8
  %11 = alloca ptr, align 8
  %12 = alloca ptr, align 8
  %13 = alloca ptr, align 8
  %14 = alloca ptr, align 8
  %15 = alloca %struct.StringInfoData, align 8
  %16 = alloca i32, align 4
  %17 = alloca i8, align 1
  %18 = alloca i64, align 8
  %19 = alloca ptr, align 8
  %20 = alloca i64, align 8
  %21 = alloca ptr, align 8
  %22 = alloca i32, align 4
  %23 = alloca i8, align 1
  %24 = alloca i64, align 8
  %25 = alloca ptr, align 8
  store ptr %0, ptr %2, align 8
  call void @llvm.lifetime.start.p0(i64 4, ptr %3) #8
  call void @llvm.lifetime.start.p0(i64 4, ptr %4) #8
  call void @llvm.lifetime.start.p0(i64 8, ptr %5) #8
  call void @llvm.lifetime.start.p0(i64 8, ptr %6) #8
  call void @llvm.lifetime.start.p0(i64 24, ptr %7) #8
  call void @llvm.lifetime.start.p0(i64 1, ptr %8) #8
  call void @llvm.lifetime.start.p0(i64 4, ptr %9) #8
  call void @llvm.lifetime.start.p0(i64 48, ptr %10) #8
  call void @llvm.lifetime.start.p0(i64 8, ptr %11) #8
  store ptr null, ptr %11, align 8
  call void @initStringInfo(ptr noundef %7)
  call void @appendStringInfoChar(ptr noundef %7, i8 noundef signext 123)
  %26 = load ptr, ptr %2, align 8
  %27 = getelementptr inbounds nuw %struct.FunctionCallInfoBaseData, ptr %26, i32 0, i32 6
  %28 = getelementptr inbounds [0 x %struct.NullableDatum], ptr %27, i64 0, i64 0
  %29 = getelementptr inbounds nuw %struct.NullableDatum, ptr %28, i32 0, i32 0
  %30 = load i64, ptr %29, align 8
  %31 = call ptr @DatumGetPointer(i64 noundef %30)
  %32 = call ptr @pg_detoast_datum(ptr noundef %31)
  store ptr %32, ptr %5, align 8
  %33 = load ptr, ptr %5, align 8
  %34 = getelementptr inbounds nuw %struct.SerializedRanges, ptr %33, i32 0, i32 1
  %35 = load i32, ptr %34, align 4
  call void @getTypeOutputInfo(i32 noundef %35, ptr noundef %9, ptr noundef %8)
  %36 = load i32, ptr %9, align 4
  call void @fmgr_info(i32 noundef %36, ptr noundef %10)
  %37 = load ptr, ptr %5, align 8
  %38 = getelementptr inbounds nuw %struct.SerializedRanges, ptr %37, i32 0, i32 4
  %39 = load i32, ptr %38, align 4
  %40 = load ptr, ptr %5, align 8
  %41 = call ptr @brin_range_deserialize(i32 noundef %39, ptr noundef %40)
  store ptr %41, ptr %6, align 8
  %42 = load ptr, ptr %6, align 8
  %43 = getelementptr inbounds nuw %struct.Ranges, ptr %42, i32 0, i32 4
  %44 = load i32, ptr %43, align 8
  %45 = load ptr, ptr %6, align 8
  %46 = getelementptr inbounds nuw %struct.Ranges, ptr %45, i32 0, i32 6
  %47 = load i32, ptr %46, align 8
  %48 = load ptr, ptr %6, align 8
  %49 = getelementptr inbounds nuw %struct.Ranges, ptr %48, i32 0, i32 7
  %50 = load i32, ptr %49, align 4
  call void (ptr, ptr, ...) @appendStringInfo(ptr noundef %7, ptr noundef @.str.7, i32 noundef %44, i32 noundef %47, i32 noundef %50)
  store i32 0, ptr %4, align 4
  store i32 0, ptr %3, align 4
  br label %51

51:                                               ; preds = %86, %1
  %52 = load i32, ptr %3, align 4
  %53 = load ptr, ptr %6, align 8
  %54 = getelementptr inbounds nuw %struct.Ranges, ptr %53, i32 0, i32 4
  %55 = load i32, ptr %54, align 8
  %56 = icmp slt i32 %52, %55
  br i1 %56, label %57, label %89

57:                                               ; preds = %51
  call void @llvm.lifetime.start.p0(i64 8, ptr %12) #8
  call void @llvm.lifetime.start.p0(i64 8, ptr %13) #8
  call void @llvm.lifetime.start.p0(i64 8, ptr %14) #8
  call void @llvm.lifetime.start.p0(i64 24, ptr %15) #8
  call void @initStringInfo(ptr noundef %15)
  %58 = load ptr, ptr %6, align 8
  %59 = getelementptr inbounds nuw %struct.Ranges, ptr %58, i32 0, i32 9
  %60 = load i32, ptr %4, align 4
  %61 = add i32 %60, 1
  store i32 %61, ptr %4, align 4
  %62 = sext i32 %60 to i64
  %63 = getelementptr inbounds [0 x i64], ptr %59, i64 0, i64 %62
  %64 = load i64, ptr %63, align 8
  %65 = call ptr @OutputFunctionCall(ptr noundef %10, i64 noundef %64)
  store ptr %65, ptr %12, align 8
  %66 = load ptr, ptr %6, align 8
  %67 = getelementptr inbounds nuw %struct.Ranges, ptr %66, i32 0, i32 9
  %68 = load i32, ptr %4, align 4
  %69 = add i32 %68, 1
  store i32 %69, ptr %4, align 4
  %70 = sext i32 %68 to i64
  %71 = getelementptr inbounds [0 x i64], ptr %67, i64 0, i64 %70
  %72 = load i64, ptr %71, align 8
  %73 = call ptr @OutputFunctionCall(ptr noundef %10, i64 noundef %72)
  store ptr %73, ptr %13, align 8
  %74 = load ptr, ptr %12, align 8
  %75 = load ptr, ptr %13, align 8
  call void (ptr, ptr, ...) @appendStringInfo(ptr noundef %15, ptr noundef @.str.8, ptr noundef %74, ptr noundef %75)
  %76 = getelementptr inbounds nuw %struct.StringInfoData, ptr %15, i32 0, i32 0
  %77 = load ptr, ptr %76, align 8
  %78 = getelementptr inbounds nuw %struct.StringInfoData, ptr %15, i32 0, i32 1
  %79 = load i32, ptr %78, align 8
  %80 = call ptr @cstring_to_text_with_len(ptr noundef %77, i32 noundef %79)
  store ptr %80, ptr %14, align 8
  %81 = load ptr, ptr %11, align 8
  %82 = load ptr, ptr %14, align 8
  %83 = call i64 @PointerGetDatum(ptr noundef %82)
  %84 = load ptr, ptr @CurrentMemoryContext, align 8
  %85 = call ptr @accumArrayResult(ptr noundef %81, i64 noundef %83, i1 noundef zeroext false, i32 noundef 25, ptr noundef %84)
  store ptr %85, ptr %11, align 8
  call void @llvm.lifetime.end.p0(i64 24, ptr %15) #8
  call void @llvm.lifetime.end.p0(i64 8, ptr %14) #8
  call void @llvm.lifetime.end.p0(i64 8, ptr %13) #8
  call void @llvm.lifetime.end.p0(i64 8, ptr %12) #8
  br label %86

86:                                               ; preds = %57
  %87 = load i32, ptr %3, align 4
  %88 = add i32 %87, 1
  store i32 %88, ptr %3, align 4
  br label %51, !llvm.loop !29

89:                                               ; preds = %51
  %90 = load ptr, ptr %6, align 8
  %91 = getelementptr inbounds nuw %struct.Ranges, ptr %90, i32 0, i32 4
  %92 = load i32, ptr %91, align 8
  %93 = icmp sgt i32 %92, 0
  br i1 %93, label %94, label %102

94:                                               ; preds = %89
  call void @llvm.lifetime.start.p0(i64 4, ptr %16) #8
  call void @llvm.lifetime.start.p0(i64 1, ptr %17) #8
  call void @llvm.lifetime.start.p0(i64 8, ptr %18) #8
  call void @llvm.lifetime.start.p0(i64 8, ptr %19) #8
  call void @getTypeOutputInfo(i32 noundef 2277, ptr noundef %16, ptr noundef %17)
  %95 = load ptr, ptr %11, align 8
  %96 = load ptr, ptr @CurrentMemoryContext, align 8
  %97 = call i64 @makeArrayResult(ptr noundef %95, ptr noundef %96)
  store i64 %97, ptr %18, align 8
  %98 = load i32, ptr %16, align 4
  %99 = load i64, ptr %18, align 8
  %100 = call ptr @OidOutputFunctionCall(i32 noundef %98, i64 noundef %99)
  store ptr %100, ptr %19, align 8
  %101 = load ptr, ptr %19, align 8
  call void (ptr, ptr, ...) @appendStringInfo(ptr noundef %7, ptr noundef @.str.9, ptr noundef %101)
  call void @llvm.lifetime.end.p0(i64 8, ptr %19) #8
  call void @llvm.lifetime.end.p0(i64 8, ptr %18) #8
  call void @llvm.lifetime.end.p0(i64 1, ptr %17) #8
  call void @llvm.lifetime.end.p0(i64 4, ptr %16) #8
  br label %102

102:                                              ; preds = %94, %89
  store ptr null, ptr %11, align 8
  store i32 0, ptr %3, align 4
  br label %103

103:                                              ; preds = %126, %102
  %104 = load i32, ptr %3, align 4
  %105 = load ptr, ptr %6, align 8
  %106 = getelementptr inbounds nuw %struct.Ranges, ptr %105, i32 0, i32 6
  %107 = load i32, ptr %106, align 8
  %108 = icmp slt i32 %104, %107
  br i1 %108, label %109, label %129

109:                                              ; preds = %103
  call void @llvm.lifetime.start.p0(i64 8, ptr %20) #8
  call void @llvm.lifetime.start.p0(i64 8, ptr %21) #8
  %110 = load ptr, ptr %6, align 8
  %111 = getelementptr inbounds nuw %struct.Ranges, ptr %110, i32 0, i32 9
  %112 = load i32, ptr %4, align 4
  %113 = add i32 %112, 1
  store i32 %113, ptr %4, align 4
  %114 = sext i32 %112 to i64
  %115 = getelementptr inbounds [0 x i64], ptr %111, i64 0, i64 %114
  %116 = load i64, ptr %115, align 8
  %117 = call i64 @FunctionCall1Coll(ptr noundef %10, i32 noundef 0, i64 noundef %116)
  store i64 %117, ptr %20, align 8
  %118 = load i64, ptr %20, align 8
  %119 = call ptr @DatumGetCString(i64 noundef %118)
  %120 = call ptr @cstring_to_text(ptr noundef %119)
  store ptr %120, ptr %21, align 8
  %121 = load ptr, ptr %11, align 8
  %122 = load ptr, ptr %21, align 8
  %123 = call i64 @PointerGetDatum(ptr noundef %122)
  %124 = load ptr, ptr @CurrentMemoryContext, align 8
  %125 = call ptr @accumArrayResult(ptr noundef %121, i64 noundef %123, i1 noundef zeroext false, i32 noundef 25, ptr noundef %124)
  store ptr %125, ptr %11, align 8
  call void @llvm.lifetime.end.p0(i64 8, ptr %21) #8
  call void @llvm.lifetime.end.p0(i64 8, ptr %20) #8
  br label %126

126:                                              ; preds = %109
  %127 = load i32, ptr %3, align 4
  %128 = add i32 %127, 1
  store i32 %128, ptr %3, align 4
  br label %103, !llvm.loop !30

129:                                              ; preds = %103
  %130 = load ptr, ptr %6, align 8
  %131 = getelementptr inbounds nuw %struct.Ranges, ptr %130, i32 0, i32 6
  %132 = load i32, ptr %131, align 8
  %133 = icmp sgt i32 %132, 0
  br i1 %133, label %134, label %142

134:                                              ; preds = %129
  call void @llvm.lifetime.start.p0(i64 4, ptr %22) #8
  call void @llvm.lifetime.start.p0(i64 1, ptr %23) #8
  call void @llvm.lifetime.start.p0(i64 8, ptr %24) #8
  call void @llvm.lifetime.start.p0(i64 8, ptr %25) #8
  call void @getTypeOutputInfo(i32 noundef 2277, ptr noundef %22, ptr noundef %23)
  %135 = load ptr, ptr %11, align 8
  %136 = load ptr, ptr @CurrentMemoryContext, align 8
  %137 = call i64 @makeArrayResult(ptr noundef %135, ptr noundef %136)
  store i64 %137, ptr %24, align 8
  %138 = load i32, ptr %22, align 4
  %139 = load i64, ptr %24, align 8
  %140 = call ptr @OidOutputFunctionCall(i32 noundef %138, i64 noundef %139)
  store ptr %140, ptr %25, align 8
  %141 = load ptr, ptr %25, align 8
  call void (ptr, ptr, ...) @appendStringInfo(ptr noundef %7, ptr noundef @.str.10, ptr noundef %141)
  call void @llvm.lifetime.end.p0(i64 8, ptr %25) #8
  call void @llvm.lifetime.end.p0(i64 8, ptr %24) #8
  call void @llvm.lifetime.end.p0(i64 1, ptr %23) #8
  call void @llvm.lifetime.end.p0(i64 4, ptr %22) #8
  br label %142

142:                                              ; preds = %134, %129
  call void @appendStringInfoChar(ptr noundef %7, i8 noundef signext 125)
  %143 = getelementptr inbounds nuw %struct.StringInfoData, ptr %7, i32 0, i32 0
  %144 = load ptr, ptr %143, align 8
  %145 = call i64 @CStringGetDatum(ptr noundef %144)
  call void @llvm.lifetime.end.p0(i64 8, ptr %11) #8
  call void @llvm.lifetime.end.p0(i64 48, ptr %10) #8
  call void @llvm.lifetime.end.p0(i64 4, ptr %9) #8
  call void @llvm.lifetime.end.p0(i64 1, ptr %8) #8
  call void @llvm.lifetime.end.p0(i64 24, ptr %7) #8
  call void @llvm.lifetime.end.p0(i64 8, ptr %6) #8
  call void @llvm.lifetime.end.p0(i64 8, ptr %5) #8
  call void @llvm.lifetime.end.p0(i64 4, ptr %4) #8
  call void @llvm.lifetime.end.p0(i64 4, ptr %3) #8
  ret i64 %145
}