; Function Attrs: nounwind uwtable
define dso_local i64 @brin_minmax_multi_summary_out(ptr noundef readonly captures(none) %0) local_unnamed_addr #0 {
  %2 = alloca %struct.StringInfoData, align 8
  %3 = alloca i8, align 1
  %4 = alloca i32, align 4
  %5 = alloca %struct.FmgrInfo, align 8
  %6 = alloca %struct.StringInfoData, align 8
  %7 = alloca i32, align 4
  %8 = alloca i8, align 1
  %9 = alloca i32, align 4
  %10 = alloca i8, align 1
  call void @llvm.lifetime.start.p0(i64 24, ptr nonnull %2) #12
  call void @llvm.lifetime.start.p0(i64 1, ptr nonnull %3) #12
  call void @llvm.lifetime.start.p0(i64 4, ptr nonnull %4) #12
  call void @llvm.lifetime.start.p0(i64 48, ptr nonnull %5) #12
  call void @initStringInfo(ptr noundef nonnull %2) #12
  call void @appendStringInfoChar(ptr noundef nonnull %2, i8 noundef signext 123) #12
  %11 = getelementptr inbounds nuw i8, ptr %0, i64 32
  %12 = load i64, ptr %11, align 8
  %13 = inttoptr i64 %12 to ptr
  %14 = call ptr @pg_detoast_datum(ptr noundef %13) #12
  %15 = getelementptr inbounds nuw i8, ptr %14, i64 4
  %16 = load i32, ptr %15, align 4
  call void @getTypeOutputInfo(i32 noundef %16, ptr noundef nonnull %4, ptr noundef nonnull %3) #12
  %17 = load i32, ptr %4, align 4
  call void @fmgr_info(i32 noundef %17, ptr noundef nonnull %5) #12
  %18 = getelementptr inbounds nuw i8, ptr %14, i64 16
  %19 = load i32, ptr %18, align 4
  %20 = call fastcc ptr @brin_range_deserialize(i32 noundef %19, ptr noundef %14)
  %21 = getelementptr inbounds nuw i8, ptr %20, i64 24
  %22 = load i32, ptr %21, align 8
  %23 = getelementptr inbounds nuw i8, ptr %20, i64 32
  %24 = load i32, ptr %23, align 8
  %25 = getelementptr inbounds nuw i8, ptr %20, i64 36
  %26 = load i32, ptr %25, align 4
  call void (ptr, ptr, ...) @appendStringInfo(ptr noundef nonnull %2, ptr noundef nonnull @.str.7, i32 noundef %22, i32 noundef %24, i32 noundef %26) #12
  %27 = load i32, ptr %21, align 8
  %28 = icmp sgt i32 %27, 0
  br i1 %28, label %.lr.ph, label %._crit_edge.thread

.lr.ph:                                           ; preds = %1
  %29 = getelementptr inbounds nuw i8, ptr %20, i64 48
  %30 = getelementptr inbounds nuw i8, ptr %6, i64 8
  br label %31

31:                                               ; preds = %.lr.ph, %31
  %.042 = phi i32 [ 0, %.lr.ph ], [ %48, %31 ]
  %.03341 = phi i32 [ 0, %.lr.ph ], [ %37, %31 ]
  %.03540 = phi ptr [ null, %.lr.ph ], [ %47, %31 ]
  call void @llvm.lifetime.start.p0(i64 24, ptr nonnull %6) #12
  call void @initStringInfo(ptr noundef nonnull %6) #12
  %32 = or disjoint i32 %.03341, 1
  %33 = sext i32 %.03341 to i64
  %34 = getelementptr inbounds [0 x i64], ptr %29, i64 0, i64 %33
  %35 = load i64, ptr %34, align 8
  %36 = call ptr @OutputFunctionCall(ptr noundef nonnull %5, i64 noundef %35) #12
  %37 = add nuw i32 %.03341, 2
  %38 = sext i32 %32 to i64
  %39 = getelementptr inbounds [0 x i64], ptr %29, i64 0, i64 %38
  %40 = load i64, ptr %39, align 8
  %41 = call ptr @OutputFunctionCall(ptr noundef nonnull %5, i64 noundef %40) #12
  call void (ptr, ptr, ...) @appendStringInfo(ptr noundef nonnull %6, ptr noundef nonnull @.str.8, ptr noundef %36, ptr noundef %41) #12
  %42 = load ptr, ptr %6, align 8
  %43 = load i32, ptr %30, align 8
  %44 = call ptr @cstring_to_text_with_len(ptr noundef %42, i32 noundef %43) #12
  %45 = ptrtoint ptr %44 to i64
  %46 = load ptr, ptr @CurrentMemoryContext, align 8
  %47 = call ptr @accumArrayResult(ptr noundef %.03540, i64 noundef %45, i1 noundef zeroext false, i32 noundef 25, ptr noundef %46) #12
  call void @llvm.lifetime.end.p0(i64 24, ptr nonnull %6) #12
  %48 = add nuw nsw i32 %.042, 1
  %49 = load i32, ptr %21, align 8
  %50 = icmp slt i32 %48, %49
  br i1 %50, label %31, label %._crit_edge, !llvm.loop !30

._crit_edge:                                      ; preds = %31
  %51 = icmp sgt i32 %49, 0
  br i1 %51, label %52, label %._crit_edge.thread

52:                                               ; preds = %._crit_edge
  call void @llvm.lifetime.start.p0(i64 4, ptr nonnull %7) #12
  call void @llvm.lifetime.start.p0(i64 1, ptr nonnull %8) #12
  call void @getTypeOutputInfo(i32 noundef 2277, ptr noundef nonnull %7, ptr noundef nonnull %8) #12
  %53 = load ptr, ptr @CurrentMemoryContext, align 8
  %54 = call i64 @makeArrayResult(ptr noundef %47, ptr noundef %53) #12
  %55 = load i32, ptr %7, align 4
  %56 = call ptr @OidOutputFunctionCall(i32 noundef %55, i64 noundef %54) #12
  call void (ptr, ptr, ...) @appendStringInfo(ptr noundef nonnull %2, ptr noundef nonnull @.str.9, ptr noundef %56) #12
  call void @llvm.lifetime.end.p0(i64 1, ptr nonnull %8) #12
  call void @llvm.lifetime.end.p0(i64 4, ptr nonnull %7) #12
  br label %._crit_edge.thread

._crit_edge.thread:                               ; preds = %1, %52, %._crit_edge
  %.033.lcssa61 = phi i32 [ %37, %52 ], [ %37, %._crit_edge ], [ 0, %1 ]
  %57 = load i32, ptr %23, align 8
  %58 = icmp sgt i32 %57, 0
  br i1 %58, label %.lr.ph49, label %._crit_edge50.thread

.lr.ph49:                                         ; preds = %._crit_edge.thread
  %59 = getelementptr inbounds nuw i8, ptr %20, i64 48
  br label %60

60:                                               ; preds = %.lr.ph49, %60
  %.147 = phi i32 [ 0, %.lr.ph49 ], [ %71, %60 ]
  %.13446 = phi i32 [ %.033.lcssa61, %.lr.ph49 ], [ %61, %60 ]
  %.13645 = phi ptr [ null, %.lr.ph49 ], [ %70, %60 ]
  %61 = add i32 %.13446, 1
  %62 = sext i32 %.13446 to i64
  %63 = getelementptr inbounds [0 x i64], ptr %59, i64 0, i64 %62
  %64 = load i64, ptr %63, align 8
  %65 = call i64 @FunctionCall1Coll(ptr noundef nonnull %5, i32 noundef 0, i64 noundef %64) #12
  %66 = inttoptr i64 %65 to ptr
  %67 = call ptr @cstring_to_text(ptr noundef %66) #12
  %68 = ptrtoint ptr %67 to i64
  %69 = load ptr, ptr @CurrentMemoryContext, align 8
  %70 = call ptr @accumArrayResult(ptr noundef %.13645, i64 noundef %68, i1 noundef zeroext false, i32 noundef 25, ptr noundef %69) #12
  %71 = add nuw nsw i32 %.147, 1
  %72 = load i32, ptr %23, align 8
  %73 = icmp slt i32 %71, %72
  br i1 %73, label %60, label %._crit_edge50, !llvm.loop !31

._crit_edge50:                                    ; preds = %60
  %74 = icmp sgt i32 %72, 0
  br i1 %74, label %75, label %._crit_edge50.thread

75:                                               ; preds = %._crit_edge50
  call void @llvm.lifetime.start.p0(i64 4, ptr nonnull %9) #12
  call void @llvm.lifetime.start.p0(i64 1, ptr nonnull %10) #12
  call void @getTypeOutputInfo(i32 noundef 2277, ptr noundef nonnull %9, ptr noundef nonnull %10) #12
  %76 = load ptr, ptr @CurrentMemoryContext, align 8
  %77 = call i64 @makeArrayResult(ptr noundef %70, ptr noundef %76) #12
  %78 = load i32, ptr %9, align 4
  %79 = call ptr @OidOutputFunctionCall(i32 noundef %78, i64 noundef %77) #12
  call void (ptr, ptr, ...) @appendStringInfo(ptr noundef nonnull %2, ptr noundef nonnull @.str.10, ptr noundef %79) #12
  call void @llvm.lifetime.end.p0(i64 1, ptr nonnull %10) #12
  call void @llvm.lifetime.end.p0(i64 4, ptr nonnull %9) #12
  br label %._crit_edge50.thread

._crit_edge50.thread:                             ; preds = %._crit_edge.thread, %75, %._crit_edge50
  call void @appendStringInfoChar(ptr noundef nonnull %2, i8 noundef signext 125) #12
  %80 = load ptr, ptr %2, align 8
  %81 = ptrtoint ptr %80 to i64
  call void @llvm.lifetime.end.p0(i64 48, ptr nonnull %5) #12
  call void @llvm.lifetime.end.p0(i64 4, ptr nonnull %4) #12
  call void @llvm.lifetime.end.p0(i64 1, ptr nonnull %3) #12
  call void @llvm.lifetime.end.p0(i64 24, ptr nonnull %2) #12
  ret i64 %81
}